; ModuleID = 'source-C-CXX/6/14.c'
source_filename = "source-C-CXX/6/14.c"
target datalayout = "e-m:e-p270:32:32-p271:32:32-p272:64:64-i64:64-f80:128-n8:16:32:64-S128"
target triple = "x86_64-pc-linux-gnu"

@.str = private unnamed_addr constant [7 x i8] c"%s%s%s\00", align 1
@.str.1 = private unnamed_addr constant [3 x i8] c"%s\00", align 1

; Function Attrs: nofree nounwind sspstrong uwtable
define dso_local void @main() local_unnamed_addr #0 {
  %1 = alloca [300 x i8], align 16
  %2 = alloca [300 x i8], align 16
  %3 = alloca [300 x i8], align 16
  %4 = getelementptr inbounds [300 x i8], [300 x i8]* %3, i64 0, i64 0
  %5 = getelementptr inbounds [300 x i8], [300 x i8]* %1, i64 0, i64 0
  call void @llvm.lifetime.start.p0i8(i64 300, i8* nonnull %5) #6
  %6 = getelementptr inbounds [300 x i8], [300 x i8]* %2, i64 0, i64 0
  call void @llvm.lifetime.start.p0i8(i64 300, i8* nonnull %6) #6
  %7 = getelementptr inbounds [300 x i8], [300 x i8]* %3, i64 0, i64 0
  call void @llvm.lifetime.start.p0i8(i64 300, i8* nonnull %7) #6
  %8 = call i32 (i8*, ...) @__isoc99_scanf(i8* getelementptr inbounds ([7 x i8], [7 x i8]* @.str, i64 0, i64 0), i8* nonnull %5, i8* nonnull %6, i8* nonnull %7)
  %9 = call i64 @strlen(i8* noundef nonnull %5) #7
  %10 = trunc i64 %9 to i32
  %11 = call i64 @strlen(i8* noundef nonnull %6) #7
  %12 = trunc i64 %11 to i32
  %13 = load i8, i8* %6, align 16
  %14 = icmp sgt i32 %10, 0
  br i1 %14, label %15, label %85

15:                                               ; preds = %0
  %16 = icmp sgt i32 %12, 0
  br i1 %16, label %17, label %85

17:                                               ; preds = %15
  %18 = and i64 %9, 4294967295
  %19 = and i64 %11, 4294967295
  %20 = icmp ult i64 %19, 8
  %21 = and i64 %11, 7
  %22 = sub nsw i64 %19, %21
  %23 = icmp eq i64 %21, 0
  br label %24

24:                                               ; preds = %17, %64
  %25 = phi i64 [ 0, %17 ], [ %65, %64 ]
  %26 = getelementptr inbounds [300 x i8], [300 x i8]* %1, i64 0, i64 %25
  %27 = load i8, i8* %26, align 1, !tbaa !5
  %28 = icmp eq i8 %13, %27
  br i1 %28, label %29, label %61

29:                                               ; preds = %24
  br i1 %20, label %58, label %30

30:                                               ; preds = %29, %30
  %31 = phi i64 [ %53, %30 ], [ 0, %29 ]
  %32 = phi <4 x i32> [ %51, %30 ], [ zeroinitializer, %29 ]
  %33 = phi <4 x i32> [ %52, %30 ], [ zeroinitializer, %29 ]
  %34 = getelementptr inbounds [300 x i8], [300 x i8]* %2, i64 0, i64 %31
  %35 = bitcast i8* %34 to <4 x i8>*
  %36 = load <4 x i8>, <4 x i8>* %35, align 8, !tbaa !5
  %37 = getelementptr inbounds i8, i8* %34, i64 4
  %38 = bitcast i8* %37 to <4 x i8>*
  %39 = load <4 x i8>, <4 x i8>* %38, align 4, !tbaa !5
  %40 = add nuw nsw i64 %31, %25
  %41 = getelementptr inbounds [300 x i8], [300 x i8]* %1, i64 0, i64 %40
  %42 = bitcast i8* %41 to <4 x i8>*
  %43 = load <4 x i8>, <4 x i8>* %42, align 1, !tbaa !5
  %44 = getelementptr inbounds i8, i8* %41, i64 4
  %45 = bitcast i8* %44 to <4 x i8>*
  %46 = load <4 x i8>, <4 x i8>* %45, align 1, !tbaa !5
  %47 = icmp eq <4 x i8> %36, %43
  %48 = icmp eq <4 x i8> %39, %46
  %49 = zext <4 x i1> %47 to <4 x i32>
  %50 = zext <4 x i1> %48 to <4 x i32>
  %51 = add <4 x i32> %32, %49
  %52 = add <4 x i32> %33, %50
  %53 = add nuw i64 %31, 8
  %54 = icmp eq i64 %53, %22
  br i1 %54, label %55, label %30, !llvm.loop !8

55:                                               ; preds = %30
  %56 = add <4 x i32> %52, %51
  %57 = call i32 @llvm.vector.reduce.add.v4i32(<4 x i32> %56)
  br i1 %23, label %61, label %58

58:                                               ; preds = %29, %55
  %59 = phi i64 [ 0, %29 ], [ %22, %55 ]
  %60 = phi i32 [ 0, %29 ], [ %57, %55 ]
  br label %67

61:                                               ; preds = %67, %55, %24
  %62 = phi i32 [ 0, %24 ], [ %57, %55 ], [ %77, %67 ]
  %63 = icmp eq i32 %62, %12
  br i1 %63, label %80, label %64

64:                                               ; preds = %61
  %65 = add nuw nsw i64 %25, 1
  %66 = icmp eq i64 %65, %18
  br i1 %66, label %85, label %24, !llvm.loop !11

67:                                               ; preds = %58, %67
  %68 = phi i64 [ %78, %67 ], [ %59, %58 ]
  %69 = phi i32 [ %77, %67 ], [ %60, %58 ]
  %70 = getelementptr inbounds [300 x i8], [300 x i8]* %2, i64 0, i64 %68
  %71 = load i8, i8* %70, align 1, !tbaa !5
  %72 = add nuw nsw i64 %68, %25
  %73 = getelementptr inbounds [300 x i8], [300 x i8]* %1, i64 0, i64 %72
  %74 = load i8, i8* %73, align 1, !tbaa !5
  %75 = icmp eq i8 %71, %74
  %76 = zext i1 %75 to i32
  %77 = add nuw nsw i32 %69, %76
  %78 = add nuw nsw i64 %68, 1
  %79 = icmp eq i64 %78, %19
  br i1 %79, label %61, label %67, !llvm.loop !12

80:                                               ; preds = %61
  br i1 %16, label %81, label %85

81:                                               ; preds = %80
  %82 = and i64 %25, 4294967295
  %83 = getelementptr [300 x i8], [300 x i8]* %1, i64 0, i64 %82
  %84 = and i64 %11, 4294967295
  call void @llvm.memcpy.p0i8.p0i8.i64(i8* align 1 %83, i8* nonnull align 16 %4, i64 %84, i1 false)
  br label %85

85:                                               ; preds = %64, %15, %81, %0, %80
  %86 = call i32 (i8*, ...) @printf(i8* nonnull dereferenceable(1) getelementptr inbounds ([3 x i8], [3 x i8]* @.str.1, i64 0, i64 0), i8* nonnull %5)
  call void @llvm.lifetime.end.p0i8(i64 300, i8* nonnull %7) #6
  call void @llvm.lifetime.end.p0i8(i64 300, i8* nonnull %6) #6
  call void @llvm.lifetime.end.p0i8(i64 300, i8* nonnull %5) #6
  ret void
}

; Function Attrs: argmemonly mustprogress nofree nosync nounwind willreturn
declare void @llvm.lifetime.start.p0i8(i64 immarg, i8* nocapture) #1

; Function Attrs: nofree nounwind
declare noundef i32 @__isoc99_scanf(i8* nocapture noundef readonly, ...) local_unnamed_addr #2

; Function Attrs: argmemonly mustprogress nofree nounwind readonly willreturn
declare i64 @strlen(i8* nocapture) local_unnamed_addr #3

; Function Attrs: nofree nounwind
declare noundef i32 @printf(i8* nocapture noundef readonly, ...) local_unnamed_addr #2

; Function Attrs: argmemonly mustprogress nofree nosync nounwind willreturn
declare void @llvm.lifetime.end.p0i8(i64 immarg, i8* nocapture) #1

; Function Attrs: argmemonly nofree nounwind willreturn
declare void @llvm.memcpy.p0i8.p0i8.i64(i8* noalias nocapture writeonly, i8* noalias nocapture readonly, i64, i1 immarg) #4

; Function Attrs: nofree nosync nounwind readnone willreturn
declare i32 @llvm.vector.reduce.add.v4i32(<4 x i32>) #5


!llvm.module.flags = !{!0, !1, !2, !3}
!llvm.ident = !{!4}

!0 = !{i32 1, !"wchar_size", i32 4}
!1 = !{i32 7, !"PIC Level", i32 2}
!2 = !{i32 7, !"PIE Level", i32 2}
!3 = !{i32 7, !"uwtable", i32 1}
!4 = !{!"clang version 13.0.0"}
!5 = !{!6, !6, i64 0}
!6 = !{!"omnipotent char", !7, i64 0}
!7 = !{!"Simple C/C++ TBAA"}
!8 = distinct !{!8, !9, !10}
!9 = !{!"llvm.loop.mustprogress"}
!10 = !{!"llvm.loop.isvectorized", i32 1}
!11 = distinct !{!11, !9}
!12 = distinct !{!12, !9, !13, !10}
!13 = !{!"llvm.loop.unroll.runtime.disable"}
